; Function Attrs: nounwind uwtable
define internal ptr @des_cfb1_newctx(ptr noundef %0) #0 {
  %2 = tail call ptr @ossl_prov_cipher_hw_des_cfb1() #4
  %3 = tail call i32 @ossl_prov_is_running() #4
  %.not.i = icmp eq i32 %3, 0
  br i1 %.not.i, label %des_newctx.exit, label %4

4:                                                ; preds = %1
  %5 = tail call noalias ptr @CRYPTO_zalloc(i64 noundef 328, ptr noundef nonnull @.str, i32 noundef 40) #4
  %.not11.i = icmp eq ptr %5, null
  br i1 %.not11.i, label %des_newctx.exit, label %6

6:                                                ; preds = %4
  tail call void @ossl_cipher_generic_initkey(ptr noundef nonnull %5, i64 noundef 64, i64 noundef 8, i64 noundef 64, i32 noundef 3, i64 noundef 16, ptr noundef %2, ptr noundef %0) #4
  br label %des_newctx.exit

des_newctx.exit:                                  ; preds = %1, %4, %6
  %.0.i = phi ptr [ null, %1 ], [ %5, %6 ], [ null, %4 ]
  ret ptr %.0.i
}